target datalayout = "e-m:e-p270:32:32-p271:32:32-p272:64:64-i64:64-i128:128-f80:128-n8:16:32:64-S128"
target triple = "x86_64-unknown-linux-gnu"

%"class.rocksdb::Slice" = type { ptr, i64 }
%"struct.rocksdb::SliceParts" = type <{ ptr, i32, [4 x i8] }>

; Function Attrs: mustprogress nounwind uwtable
define linkonce_odr noundef ptr @_ZNK7rocksdb5Slice4dataEv(ptr noundef nonnull align 8 dereferenceable(16) %this) #3 comdat align 2 {
entry:
  %this.addr = alloca ptr, align 8
  store ptr %this, ptr %this.addr, align 8
  %this1 = load ptr, ptr %this.addr, align 8
  %data_ = getelementptr inbounds %"class.rocksdb::Slice", ptr %this1, i32 0, i32 0
  %0 = load ptr, ptr %data_, align 8
  ret ptr %0
}

; Function Attrs: mustprogress nounwind uwtable
define linkonce_odr noundef i64 @_ZNK7rocksdb5Slice4sizeEv(ptr noundef nonnull align 8 dereferenceable(16) %this) #3 comdat align 2 {
entry:
  %this.addr = alloca ptr, align 8
  store ptr %this, ptr %this.addr, align 8
  %this1 = load ptr, ptr %this.addr, align 8
  %size_ = getelementptr inbounds %"class.rocksdb::Slice", ptr %this1, i32 0, i32 1
  %0 = load i64, ptr %size_, align 8
  ret i64 %0
}

; Function Attrs: mustprogress uwtable
define void @_ZN7rocksdb5SliceC2ERKNS_10SlicePartsEPNSt7__cxx1112basic_stringIcSt11char_traitsIcESaIcEEE(ptr noundef nonnull align 8 dereferenceable(16) %this, ptr noundef nonnull align 8 dereferenceable(12) %parts, ptr noundef %buf) unnamed_addr #0 align 2 {
entry:
  %this.addr = alloca ptr, align 8
  %parts.addr = alloca ptr, align 8
  %buf.addr = alloca ptr, align 8
  %length = alloca i64, align 8
  %i = alloca i32, align 4
  %i3 = alloca i32, align 4
  store ptr %this, ptr %this.addr, align 8
  store ptr %parts, ptr %parts.addr, align 8
  store ptr %buf, ptr %buf.addr, align 8
  %this1 = load ptr, ptr %this.addr, align 8
  store i64 0, ptr %length, align 8
  store i32 0, ptr %i, align 4
  br label %for.cond

for.cond:                                         ; preds = %for.inc, %entry
  %0 = load i32, ptr %i, align 4
  %1 = load ptr, ptr %parts.addr, align 8
  %num_parts = getelementptr inbounds %"struct.rocksdb::SliceParts", ptr %1, i32 0, i32 1
  %2 = load i32, ptr %num_parts, align 8
  %cmp = icmp slt i32 %0, %2
  br i1 %cmp, label %for.body, label %for.end

for.body:                                         ; preds = %for.cond
  %3 = load ptr, ptr %parts.addr, align 8
  %parts2 = getelementptr inbounds %"struct.rocksdb::SliceParts", ptr %3, i32 0, i32 0
  %4 = load ptr, ptr %parts2, align 8
  %5 = load i32, ptr %i, align 4
  %idxprom = sext i32 %5 to i64
  %arrayidx = getelementptr inbounds %"class.rocksdb::Slice", ptr %4, i64 %idxprom
  %call = call noundef i64 @_ZNK7rocksdb5Slice4sizeEv(ptr noundef nonnull align 8 dereferenceable(16) %arrayidx)
  %6 = load i64, ptr %length, align 8
  %add = add i64 %6, %call
  store i64 %add, ptr %length, align 8
  br label %for.inc

for.inc:                                          ; preds = %for.body
  %7 = load i32, ptr %i, align 4
  %inc = add nsw i32 %7, 1
  store i32 %inc, ptr %i, align 4
  br label %for.cond, !llvm.loop !4

for.end:                                          ; preds = %for.cond
  %8 = load ptr, ptr %buf.addr, align 8
  %9 = load i64, ptr %length, align 8
  call void @_ZNSt7__cxx1112basic_stringIcSt11char_traitsIcESaIcEE7reserveEm(ptr noundef nonnull align 8 dereferenceable(32) %8, i64 noundef %9)
  store i32 0, ptr %i3, align 4
  br label %for.cond4

for.cond4:                                        ; preds = %for.inc17, %for.end
  %10 = load i32, ptr %i3, align 4
  %11 = load ptr, ptr %parts.addr, align 8
  %num_parts5 = getelementptr inbounds %"struct.rocksdb::SliceParts", ptr %11, i32 0, i32 1
  %12 = load i32, ptr %num_parts5, align 8
  %cmp6 = icmp slt i32 %10, %12
  br i1 %cmp6, label %for.body7, label %for.end19

for.body7:                                        ; preds = %for.cond4
  %13 = load ptr, ptr %buf.addr, align 8
  %14 = load ptr, ptr %parts.addr, align 8
  %parts8 = getelementptr inbounds %"struct.rocksdb::SliceParts", ptr %14, i32 0, i32 0
  %15 = load ptr, ptr %parts8, align 8
  %16 = load i32, ptr %i3, align 4
  %idxprom9 = sext i32 %16 to i64
  %arrayidx10 = getelementptr inbounds %"class.rocksdb::Slice", ptr %15, i64 %idxprom9
  %call11 = call noundef ptr @_ZNK7rocksdb5Slice4dataEv(ptr noundef nonnull align 8 dereferenceable(16) %arrayidx10)
  %17 = load ptr, ptr %parts.addr, align 8
  %parts12 = getelementptr inbounds %"struct.rocksdb::SliceParts", ptr %17, i32 0, i32 0
  %18 = load ptr, ptr %parts12, align 8
  %19 = load i32, ptr %i3, align 4
  %idxprom13 = sext i32 %19 to i64
  %arrayidx14 = getelementptr inbounds %"class.rocksdb::Slice", ptr %18, i64 %idxprom13
  %call15 = call noundef i64 @_ZNK7rocksdb5Slice4sizeEv(ptr noundef nonnull align 8 dereferenceable(16) %arrayidx14)
  %call16 = call noundef nonnull align 8 dereferenceable(32) ptr @_ZNSt7__cxx1112basic_stringIcSt11char_traitsIcESaIcEE6appendEPKcm(ptr noundef nonnull align 8 dereferenceable(32) %13, ptr noundef %call11, i64 noundef %call15)
  br label %for.inc17

for.inc17:                                        ; preds = %for.body7
  %20 = load i32, ptr %i3, align 4
  %inc18 = add nsw i32 %20, 1
  store i32 %inc18, ptr %i3, align 4
  br label %for.cond4, !llvm.loop !6

for.end19:                                        ; preds = %for.cond4
  %21 = load ptr, ptr %buf.addr, align 8
  %call20 = call noundef ptr @_ZNSt7__cxx1112basic_stringIcSt11char_traitsIcESaIcEE4dataEv(ptr noundef nonnull align 8 dereferenceable(32) %21) #14
  %data_ = getelementptr inbounds %"class.rocksdb::Slice", ptr %this1, i32 0, i32 0
  store ptr %call20, ptr %data_, align 8
  %22 = load ptr, ptr %buf.addr, align 8
  %call21 = call noundef i64 @_ZNKSt7__cxx1112basic_stringIcSt11char_traitsIcESaIcEE4sizeEv(ptr noundef nonnull align 8 dereferenceable(32) %22) #14
  %size_ = getelementptr inbounds %"class.rocksdb::Slice", ptr %this1, i32 0, i32 1
  store i64 %call21, ptr %size_, align 8
  ret void
}