; Function Attrs: mustprogress uwtable
define void @_ZN7rocksdb5SliceC2ERKNS_10SlicePartsEPNSt7__cxx1112basic_stringIcSt11char_traitsIcESaIcEEE(ptr nocapture noundef nonnull writeonly align 8 dereferenceable(16) %this, ptr nocapture noundef nonnull readonly align 8 dereferenceable(12) %parts, ptr noundef %buf) unnamed_addr #0 align 2 {
entry:
  %num_parts = getelementptr inbounds i8, ptr %parts, i64 8
  %0 = load i32, ptr %num_parts, align 8
  %cmp15 = icmp sgt i32 %0, 0
  br i1 %cmp15, label %for.body.lr.ph, label %for.end

for.body.lr.ph:                                   ; preds = %entry
  %1 = load ptr, ptr %parts, align 8
  %wide.trip.count = zext nneg i32 %0 to i64
  br label %for.body

for.body:                                         ; preds = %for.body.lr.ph, %for.body
  %indvars.iv = phi i64 [ 0, %for.body.lr.ph ], [ %indvars.iv.next, %for.body ]
  %length.016 = phi i64 [ 0, %for.body.lr.ph ], [ %add, %for.body ]
  %size_.i = getelementptr inbounds %"class.rocksdb::Slice", ptr %1, i64 %indvars.iv, i32 1
  %2 = load i64, ptr %size_.i, align 8
  %add = add i64 %2, %length.016
  %indvars.iv.next = add nuw nsw i64 %indvars.iv, 1
  %exitcond.not = icmp eq i64 %indvars.iv.next, %wide.trip.count
  br i1 %exitcond.not, label %for.end, label %for.body, !llvm.loop !18

for.end:                                          ; preds = %for.body, %entry
  %length.0.lcssa = phi i64 [ 0, %entry ], [ %add, %for.body ]
  tail call void @_ZNSt7__cxx1112basic_stringIcSt11char_traitsIcESaIcEE7reserveEm(ptr noundef nonnull align 8 dereferenceable(32) %buf, i64 noundef %length.0.lcssa)
  %3 = load i32, ptr %num_parts, align 8
  %cmp618 = icmp sgt i32 %3, 0
  br i1 %cmp618, label %for.body7, label %for.end19

for.body7:                                        ; preds = %for.end, %for.body7
  %indvars.iv21 = phi i64 [ %indvars.iv.next22, %for.body7 ], [ 0, %for.end ]
  %4 = load ptr, ptr %parts, align 8
  %arrayidx10 = getelementptr inbounds %"class.rocksdb::Slice", ptr %4, i64 %indvars.iv21
  %5 = load ptr, ptr %arrayidx10, align 8
  %size_.i14 = getelementptr inbounds i8, ptr %arrayidx10, i64 8
  %6 = load i64, ptr %size_.i14, align 8
  %call16 = tail call noundef nonnull align 8 dereferenceable(32) ptr @_ZNSt7__cxx1112basic_stringIcSt11char_traitsIcESaIcEE6appendEPKcm(ptr noundef nonnull align 8 dereferenceable(32) %buf, ptr noundef %5, i64 noundef %6)
  %indvars.iv.next22 = add nuw nsw i64 %indvars.iv21, 1
  %7 = load i32, ptr %num_parts, align 8
  %8 = sext i32 %7 to i64
  %cmp6 = icmp slt i64 %indvars.iv.next22, %8
  br i1 %cmp6, label %for.body7, label %for.end19, !llvm.loop !19

for.end19:                                        ; preds = %for.body7, %for.end
  %call20 = tail call noundef ptr @_ZNSt7__cxx1112basic_stringIcSt11char_traitsIcESaIcEE4dataEv(ptr noundef nonnull align 8 dereferenceable(32) %buf) #21
  store ptr %call20, ptr %this, align 8
  %call21 = tail call noundef i64 @_ZNKSt7__cxx1112basic_stringIcSt11char_traitsIcESaIcEE4sizeEv(ptr noundef nonnull align 8 dereferenceable(32) %buf) #21
  %size_ = getelementptr inbounds i8, ptr %this, i64 8
  store i64 %call21, ptr %size_, align 8
  ret void
}